target datalayout = "e-m:e-p270:32:32-p271:32:32-p272:64:64-i64:64-i128:128-f80:128-n8:16:32:64-S128"
target triple = "x86_64-pc-linux-gnu"

%class.dtObstacleAvoidanceDebugData = type { i32, i32, ptr, ptr, ptr, ptr, ptr, ptr, ptr }

; Function Attrs: mustprogress nounwind uwtable
define linkonce_odr noundef float @_Z7dtClampIfET_S0_S0_S0_(float noundef %0, float noundef %1, float noundef %2) #2 comdat {
  %4 = alloca float, align 4
  %5 = alloca float, align 4
  %6 = alloca float, align 4
  store float %0, ptr %4, align 4
  store float %1, ptr %5, align 4
  store float %2, ptr %6, align 4
  %7 = load float, ptr %4, align 4
  %8 = load float, ptr %5, align 4
  %9 = fcmp olt float %7, %8
  br i1 %9, label %10, label %12

10:                                               ; preds = %3
  %11 = load float, ptr %5, align 4
  br label %22

12:                                               ; preds = %3
  %13 = load float, ptr %4, align 4
  %14 = load float, ptr %6, align 4
  %15 = fcmp ogt float %13, %14
  br i1 %15, label %16, label %18

16:                                               ; preds = %12
  %17 = load float, ptr %6, align 4
  br label %20

18:                                               ; preds = %12
  %19 = load float, ptr %4, align 4
  br label %20

20:                                               ; preds = %18, %16
  %21 = phi float [ %17, %16 ], [ %19, %18 ]
  br label %22

22:                                               ; preds = %20, %10
  %23 = phi float [ %11, %10 ], [ %21, %20 ]
  ret float %23
}

; Function Attrs: mustprogress nounwind uwtable
define linkonce_odr noundef float @_Z5dtMaxIfET_S0_S0_(float noundef %0, float noundef %1) #2 comdat {
  %3 = alloca float, align 4
  %4 = alloca float, align 4
  store float %0, ptr %3, align 4
  store float %1, ptr %4, align 4
  %5 = load float, ptr %3, align 4
  %6 = load float, ptr %4, align 4
  %7 = fcmp ogt float %5, %6
  br i1 %7, label %8, label %10

8:                                                ; preds = %2
  %9 = load float, ptr %3, align 4
  br label %12

10:                                               ; preds = %2
  %11 = load float, ptr %4, align 4
  br label %12

12:                                               ; preds = %10, %8
  %13 = phi float [ %9, %8 ], [ %11, %10 ]
  ret float %13
}

; Function Attrs: mustprogress nounwind uwtable
define linkonce_odr noundef float @_Z5dtMinIfET_S0_S0_(float noundef %0, float noundef %1) #2 comdat {
  %3 = alloca float, align 4
  %4 = alloca float, align 4
  store float %0, ptr %3, align 4
  store float %1, ptr %4, align 4
  %5 = load float, ptr %3, align 4
  %6 = load float, ptr %4, align 4
  %7 = fcmp olt float %5, %6
  br i1 %7, label %8, label %10

8:                                                ; preds = %2
  %9 = load float, ptr %3, align 4
  br label %12

10:                                               ; preds = %2
  %11 = load float, ptr %4, align 4
  br label %12

12:                                               ; preds = %10, %8
  %13 = phi float [ %9, %8 ], [ %11, %10 ]
  ret float %13
}

; Function Attrs: mustprogress uwtable
define internal void @_ZL14normalizeArrayPfi(ptr noundef %0, i32 noundef %1) #0 {
  %3 = alloca ptr, align 8
  %4 = alloca i32, align 4
  %5 = alloca float, align 4
  %6 = alloca float, align 4
  %7 = alloca i32, align 4
  %8 = alloca float, align 4
  %9 = alloca float, align 4
  %10 = alloca i32, align 4
  store ptr %0, ptr %3, align 8
  store i32 %1, ptr %4, align 4
  store float 0x47EFFFFFE0000000, ptr %5, align 4
  store float 0xC7EFFFFFE0000000, ptr %6, align 4
  store i32 0, ptr %7, align 4
  br label %11

11:                                               ; preds = %30, %2
  %12 = load i32, ptr %7, align 4
  %13 = load i32, ptr %4, align 4
  %14 = icmp slt i32 %12, %13
  br i1 %14, label %15, label %33

15:                                               ; preds = %11
  %16 = load float, ptr %5, align 4
  %17 = load ptr, ptr %3, align 8
  %18 = load i32, ptr %7, align 4
  %19 = sext i32 %18 to i64
  %20 = getelementptr inbounds float, ptr %17, i64 %19
  %21 = load float, ptr %20, align 4
  %22 = call noundef float @_Z5dtMinIfET_S0_S0_(float noundef %16, float noundef %21)
  store float %22, ptr %5, align 4
  %23 = load float, ptr %6, align 4
  %24 = load ptr, ptr %3, align 8
  %25 = load i32, ptr %7, align 4
  %26 = sext i32 %25 to i64
  %27 = getelementptr inbounds float, ptr %24, i64 %26
  %28 = load float, ptr %27, align 4
  %29 = call noundef float @_Z5dtMaxIfET_S0_S0_(float noundef %23, float noundef %28)
  store float %29, ptr %6, align 4
  br label %30

30:                                               ; preds = %15
  %31 = load i32, ptr %7, align 4
  %32 = add nsw i32 %31, 1
  store i32 %32, ptr %7, align 4
  br label %11, !llvm.loop !4

33:                                               ; preds = %11
  %34 = load float, ptr %6, align 4
  %35 = load float, ptr %5, align 4
  %36 = fsub float %34, %35
  store float %36, ptr %8, align 4
  %37 = load float, ptr %8, align 4
  %38 = fcmp ogt float %37, 0x3F50624DE0000000
  br i1 %38, label %39, label %42

39:                                               ; preds = %33
  %40 = load float, ptr %8, align 4
  %41 = fdiv float 1.000000e+00, %40
  br label %43

42:                                               ; preds = %33
  br label %43

43:                                               ; preds = %42, %39
  %44 = phi float [ %41, %39 ], [ 1.000000e+00, %42 ]
  store float %44, ptr %9, align 4
  store i32 0, ptr %10, align 4
  br label %45

45:                                               ; preds = %64, %43
  %46 = load i32, ptr %10, align 4
  %47 = load i32, ptr %4, align 4
  %48 = icmp slt i32 %46, %47
  br i1 %48, label %49, label %67

49:                                               ; preds = %45
  %50 = load ptr, ptr %3, align 8
  %51 = load i32, ptr %10, align 4
  %52 = sext i32 %51 to i64
  %53 = getelementptr inbounds float, ptr %50, i64 %52
  %54 = load float, ptr %53, align 4
  %55 = load float, ptr %5, align 4
  %56 = fsub float %54, %55
  %57 = load float, ptr %9, align 4
  %58 = fmul float %56, %57
  %59 = call noundef float @_Z7dtClampIfET_S0_S0_S0_(float noundef %58, float noundef 0.000000e+00, float noundef 1.000000e+00)
  %60 = load ptr, ptr %3, align 8
  %61 = load i32, ptr %10, align 4
  %62 = sext i32 %61 to i64
  %63 = getelementptr inbounds float, ptr %60, i64 %62
  store float %59, ptr %63, align 4
  br label %64

64:                                               ; preds = %49
  %65 = load i32, ptr %10, align 4
  %66 = add nsw i32 %65, 1
  store i32 %66, ptr %10, align 4
  br label %45, !llvm.loop !6

67:                                               ; preds = %45
  ret void
}

; Function Attrs: mustprogress uwtable
define void @_ZN28dtObstacleAvoidanceDebugData16normalizeSamplesEv(ptr noundef nonnull align 8 dereferenceable(64) %0) #0 align 2 {
  %2 = alloca ptr, align 8
  store ptr %0, ptr %2, align 8
  %3 = load ptr, ptr %2, align 8
  %4 = getelementptr inbounds %class.dtObstacleAvoidanceDebugData, ptr %3, i32 0, i32 4
  %5 = load ptr, ptr %4, align 8
  %6 = getelementptr inbounds %class.dtObstacleAvoidanceDebugData, ptr %3, i32 0, i32 0
  %7 = load i32, ptr %6, align 8
  call void @_ZL14normalizeArrayPfi(ptr noundef %5, i32 noundef %7)
  %8 = getelementptr inbounds %class.dtObstacleAvoidanceDebugData, ptr %3, i32 0, i32 5
  %9 = load ptr, ptr %8, align 8
  %10 = getelementptr inbounds %class.dtObstacleAvoidanceDebugData, ptr %3, i32 0, i32 0
  %11 = load i32, ptr %10, align 8
  call void @_ZL14normalizeArrayPfi(ptr noundef %9, i32 noundef %11)
  %12 = getelementptr inbounds %class.dtObstacleAvoidanceDebugData, ptr %3, i32 0, i32 6
  %13 = load ptr, ptr %12, align 8
  %14 = getelementptr inbounds %class.dtObstacleAvoidanceDebugData, ptr %3, i32 0, i32 0
  %15 = load i32, ptr %14, align 8
  call void @_ZL14normalizeArrayPfi(ptr noundef %13, i32 noundef %15)
  %16 = getelementptr inbounds %class.dtObstacleAvoidanceDebugData, ptr %3, i32 0, i32 7
  %17 = load ptr, ptr %16, align 8
  %18 = getelementptr inbounds %class.dtObstacleAvoidanceDebugData, ptr %3, i32 0, i32 0
  %19 = load i32, ptr %18, align 8
  call void @_ZL14normalizeArrayPfi(ptr noundef %17, i32 noundef %19)
  %20 = getelementptr inbounds %class.dtObstacleAvoidanceDebugData, ptr %3, i32 0, i32 8
  %21 = load ptr, ptr %20, align 8
  %22 = getelementptr inbounds %class.dtObstacleAvoidanceDebugData, ptr %3, i32 0, i32 0
  %23 = load i32, ptr %22, align 8
  call void @_ZL14normalizeArrayPfi(ptr noundef %21, i32 noundef %23)
  ret void
}